target datalayout = "e-m:e-p270:32:32-p271:32:32-p272:64:64-i64:64-i128:128-f80:128-n8:16:32:64-S128"
target triple = "x86_64-pc-linux-gnu"

%struct._packet_info = type { ptr, ptr, i32, i32, %struct.nstime_t, %struct.nstime_t, %struct.nstime_t, i32, ptr, ptr, ptr, ptr, %struct._address, %struct._address, %struct._address, %struct._address, %struct._address, %struct._address, i32, ptr, i32, %struct.anon, i32, i32, i32, i32, ptr, i32, ptr, ptr, i16, i16, i32, i32, i16, i32, i32, ptr, ptr, ptr, i8, i8, i16, i16, i16, i32, i16, i16, ptr, ptr, ptr, ptr, ptr, i32 }
%struct.nstime_t = type { i64, i32 }
%struct._address = type { i32, i32, ptr, ptr }
%struct.anon = type { i8, [3 x i8] }

@hf_ubx_nav_sbas = internal global i32 0, align 4
@.str.317 = private unnamed_addr constant [13 x i8] c"UBX-NAV-SBAS\00", align 1
@hf_ubx_nav_sbas_itow = internal global i32 0, align 4
@hf_ubx_nav_sbas_geo = internal global i32 0, align 4
@hf_ubx_nav_sbas_mode = internal global i32 0, align 4
@hf_ubx_nav_sbas_sys = internal global i32 0, align 4
@hf_ubx_nav_sbas_service = internal global i32 0, align 4
@hf_ubx_nav_sbas_cnt = internal global i32 0, align 4
@hf_ubx_nav_sbas_reserved1 = internal global i32 0, align 4
@hf_ubx_nav_sbas_sv_id = internal global i32 0, align 4
@hf_ubx_nav_sbas_flags = internal global i32 0, align 4
@hf_ubx_nav_sbas_udre = internal global i32 0, align 4
@hf_ubx_nav_sbas_sv_sys = internal global i32 0, align 4
@hf_ubx_nav_sbas_sv_service = internal global i32 0, align 4
@hf_ubx_nav_sbas_reserved2 = internal global i32 0, align 4
@hf_ubx_nav_sbas_prc = internal global i32 0, align 4
@hf_ubx_nav_sbas_reserved3 = internal global i32 0, align 4
@hf_ubx_nav_sbas_ic = internal global i32 0, align 4
@ett_ubx_nav_sbas = internal global i32 0, align 4
@ett_ubx_nav_sbas_service = internal global i32 0, align 4
@ett_ubx_nav_sbas_sv_info = internal global [255 x i32] zeroinitializer, align 16
@ubx_nav_sbas_service_fields = internal constant [6 x ptr] [ptr @hf_ubx_nav_sbas_service_ranging, ptr @hf_ubx_nav_sbas_service_corrections, ptr @hf_ubx_nav_sbas_service_integrity, ptr @hf_ubx_nav_sbas_service_testmode, ptr @hf_ubx_nav_sbas_service_bad, ptr null], align 16
@.str.762 = private unnamed_addr constant [10 x i8] c"SV ID %3d\00", align 1

; Function Attrs: nounwind uwtable
define internal i32 @dissect_ubx_nav_sbas(ptr noundef %0, ptr noundef %1, ptr noundef %2, ptr noundef %3) #0 {
  %5 = alloca ptr, align 8
  %6 = alloca ptr, align 8
  %7 = alloca ptr, align 8
  %8 = alloca ptr, align 8
  %9 = alloca i16, align 2
  %10 = alloca i32, align 4
  %11 = alloca ptr, align 8
  %12 = alloca ptr, align 8
  %13 = alloca i8, align 1
  %14 = alloca ptr, align 8
  store ptr %0, ptr %5, align 8
  store ptr %1, ptr %6, align 8
  store ptr %2, ptr %7, align 8
  store ptr %3, ptr %8, align 8
  %15 = load ptr, ptr %6, align 8
  %16 = getelementptr inbounds %struct._packet_info, ptr %15, i32 0, i32 1
  %17 = load ptr, ptr %16, align 8
  call void @col_set_str(ptr noundef %17, i32 noundef 34, ptr noundef @.str.317)
  %18 = load ptr, ptr %6, align 8
  %19 = getelementptr inbounds %struct._packet_info, ptr %18, i32 0, i32 1
  %20 = load ptr, ptr %19, align 8
  call void @col_clear(ptr noundef %20, i32 noundef 25)
  %21 = load ptr, ptr %5, align 8
  %22 = call zeroext i8 @tvb_get_guint8(ptr noundef %21, i32 noundef 8)
  %23 = zext i8 %22 to i32
  store i32 %23, ptr %10, align 4
  %24 = load ptr, ptr %7, align 8
  %25 = load i32, ptr @hf_ubx_nav_sbas, align 4
  %26 = load ptr, ptr %5, align 8
  %27 = load i32, ptr %10, align 4
  %28 = mul i32 12, %27
  %29 = add i32 12, %28
  %30 = call ptr @proto_tree_add_item(ptr noundef %24, i32 noundef %25, ptr noundef %26, i32 noundef 0, i32 noundef %29, i32 noundef 0)
  store ptr %30, ptr %11, align 8
  %31 = load ptr, ptr %11, align 8
  %32 = load i32, ptr @ett_ubx_nav_sbas, align 4
  %33 = call ptr @proto_item_add_subtree(ptr noundef %31, i32 noundef %32)
  store ptr %33, ptr %12, align 8
  %34 = load ptr, ptr %12, align 8
  %35 = load i32, ptr @hf_ubx_nav_sbas_itow, align 4
  %36 = load ptr, ptr %5, align 8
  %37 = call ptr @proto_tree_add_item(ptr noundef %34, i32 noundef %35, ptr noundef %36, i32 noundef 0, i32 noundef 4, i32 noundef -2147483648)
  %38 = load ptr, ptr %12, align 8
  %39 = load i32, ptr @hf_ubx_nav_sbas_geo, align 4
  %40 = load ptr, ptr %5, align 8
  %41 = call ptr @proto_tree_add_item(ptr noundef %38, i32 noundef %39, ptr noundef %40, i32 noundef 4, i32 noundef 1, i32 noundef 0)
  %42 = load ptr, ptr %12, align 8
  %43 = load i32, ptr @hf_ubx_nav_sbas_mode, align 4
  %44 = load ptr, ptr %5, align 8
  %45 = call ptr @proto_tree_add_item(ptr noundef %42, i32 noundef %43, ptr noundef %44, i32 noundef 5, i32 noundef 1, i32 noundef 0)
  %46 = load ptr, ptr %12, align 8
  %47 = load i32, ptr @hf_ubx_nav_sbas_sys, align 4
  %48 = load ptr, ptr %5, align 8
  %49 = call ptr @proto_tree_add_item(ptr noundef %46, i32 noundef %47, ptr noundef %48, i32 noundef 6, i32 noundef 1, i32 noundef 0)
  %50 = load ptr, ptr %12, align 8
  %51 = load ptr, ptr %5, align 8
  %52 = load i32, ptr @hf_ubx_nav_sbas_service, align 4
  %53 = load i32, ptr @ett_ubx_nav_sbas_service, align 4
  %54 = call ptr @proto_tree_add_bitmask(ptr noundef %50, ptr noundef %51, i32 noundef 7, i32 noundef %52, i32 noundef %53, ptr noundef @ubx_nav_sbas_service_fields, i32 noundef 0)
  %55 = load ptr, ptr %12, align 8
  %56 = load i32, ptr @hf_ubx_nav_sbas_cnt, align 4
  %57 = load ptr, ptr %5, align 8
  %58 = call ptr @proto_tree_add_item(ptr noundef %55, i32 noundef %56, ptr noundef %57, i32 noundef 8, i32 noundef 1, i32 noundef 0)
  %59 = load ptr, ptr %12, align 8
  %60 = load i32, ptr @hf_ubx_nav_sbas_reserved1, align 4
  %61 = load ptr, ptr %5, align 8
  %62 = call ptr @proto_tree_add_item(ptr noundef %59, i32 noundef %60, ptr noundef %61, i32 noundef 9, i32 noundef 3, i32 noundef -2147483648)
  store i16 0, ptr %9, align 2
  br label %63

63:                                               ; preds = %160, %4
  %64 = load i16, ptr %9, align 2
  %65 = zext i16 %64 to i32
  %66 = load i32, ptr %10, align 4
  %67 = icmp ult i32 %65, %66
  br i1 %67, label %68, label %163

68:                                               ; preds = %63
  %69 = load ptr, ptr %5, align 8
  %70 = load i16, ptr %9, align 2
  %71 = zext i16 %70 to i32
  %72 = mul i32 12, %71
  %73 = add i32 12, %72
  %74 = call zeroext i8 @tvb_get_guint8(ptr noundef %69, i32 noundef %73)
  store i8 %74, ptr %13, align 1
  %75 = load ptr, ptr %12, align 8
  %76 = load ptr, ptr %5, align 8
  %77 = load i16, ptr %9, align 2
  %78 = zext i16 %77 to i32
  %79 = mul i32 12, %78
  %80 = add i32 12, %79
  %81 = load i16, ptr %9, align 2
  %82 = zext i16 %81 to i64
  %83 = getelementptr [255 x i32], ptr @ett_ubx_nav_sbas_sv_info, i64 0, i64 %82
  %84 = load i32, ptr %83, align 4
  %85 = load i8, ptr %13, align 1
  %86 = zext i8 %85 to i32
  %87 = call ptr (ptr, ptr, i32, i32, i32, ptr, ptr, ...) @proto_tree_add_subtree_format(ptr noundef %75, ptr noundef %76, i32 noundef %80, i32 noundef 12, i32 noundef %84, ptr noundef null, ptr noundef @.str.762, i32 noundef %86)
  store ptr %87, ptr %14, align 8
  %88 = load ptr, ptr %14, align 8
  %89 = load i32, ptr @hf_ubx_nav_sbas_sv_id, align 4
  %90 = load ptr, ptr %5, align 8
  %91 = load i16, ptr %9, align 2
  %92 = zext i16 %91 to i32
  %93 = mul i32 12, %92
  %94 = add i32 12, %93
  %95 = call ptr @proto_tree_add_item(ptr noundef %88, i32 noundef %89, ptr noundef %90, i32 noundef %94, i32 noundef 1, i32 noundef 0)
  %96 = load ptr, ptr %14, align 8
  %97 = load i32, ptr @hf_ubx_nav_sbas_flags, align 4
  %98 = load ptr, ptr %5, align 8
  %99 = load i16, ptr %9, align 2
  %100 = zext i16 %99 to i32
  %101 = mul i32 12, %100
  %102 = add i32 13, %101
  %103 = call ptr @proto_tree_add_item(ptr noundef %96, i32 noundef %97, ptr noundef %98, i32 noundef %102, i32 noundef 1, i32 noundef 0)
  %104 = load ptr, ptr %14, align 8
  %105 = load i32, ptr @hf_ubx_nav_sbas_udre, align 4
  %106 = load ptr, ptr %5, align 8
  %107 = load i16, ptr %9, align 2
  %108 = zext i16 %107 to i32
  %109 = mul i32 12, %108
  %110 = add i32 14, %109
  %111 = call ptr @proto_tree_add_item(ptr noundef %104, i32 noundef %105, ptr noundef %106, i32 noundef %110, i32 noundef 1, i32 noundef 0)
  %112 = load ptr, ptr %14, align 8
  %113 = load i32, ptr @hf_ubx_nav_sbas_sv_sys, align 4
  %114 = load ptr, ptr %5, align 8
  %115 = load i16, ptr %9, align 2
  %116 = zext i16 %115 to i32
  %117 = mul i32 12, %116
  %118 = add i32 15, %117
  %119 = call ptr @proto_tree_add_item(ptr noundef %112, i32 noundef %113, ptr noundef %114, i32 noundef %118, i32 noundef 1, i32 noundef 0)
  %120 = load ptr, ptr %14, align 8
  %121 = load i32, ptr @hf_ubx_nav_sbas_sv_service, align 4
  %122 = load ptr, ptr %5, align 8
  %123 = load i16, ptr %9, align 2
  %124 = zext i16 %123 to i32
  %125 = mul i32 12, %124
  %126 = add i32 16, %125
  %127 = call ptr @proto_tree_add_item(ptr noundef %120, i32 noundef %121, ptr noundef %122, i32 noundef %126, i32 noundef 1, i32 noundef 0)
  %128 = load ptr, ptr %14, align 8
  %129 = load i32, ptr @hf_ubx_nav_sbas_reserved2, align 4
  %130 = load ptr, ptr %5, align 8
  %131 = load i16, ptr %9, align 2
  %132 = zext i16 %131 to i32
  %133 = mul i32 12, %132
  %134 = add i32 17, %133
  %135 = call ptr @proto_tree_add_item(ptr noundef %128, i32 noundef %129, ptr noundef %130, i32 noundef %134, i32 noundef 1, i32 noundef 0)
  %136 = load ptr, ptr %14, align 8
  %137 = load i32, ptr @hf_ubx_nav_sbas_prc, align 4
  %138 = load ptr, ptr %5, align 8
  %139 = load i16, ptr %9, align 2
  %140 = zext i16 %139 to i32
  %141 = mul i32 12, %140
  %142 = add i32 18, %141
  %143 = call ptr @proto_tree_add_item(ptr noundef %136, i32 noundef %137, ptr noundef %138, i32 noundef %142, i32 noundef 2, i32 noundef -2147483648)
  %144 = load ptr, ptr %14, align 8
  %145 = load i32, ptr @hf_ubx_nav_sbas_reserved3, align 4
  %146 = load ptr, ptr %5, align 8
  %147 = load i16, ptr %9, align 2
  %148 = zext i16 %147 to i32
  %149 = mul i32 12, %148
  %150 = add i32 20, %149
  %151 = call ptr @proto_tree_add_item(ptr noundef %144, i32 noundef %145, ptr noundef %146, i32 noundef %150, i32 noundef 2, i32 noundef -2147483648)
  %152 = load ptr, ptr %14, align 8
  %153 = load i32, ptr @hf_ubx_nav_sbas_ic, align 4
  %154 = load ptr, ptr %5, align 8
  %155 = load i16, ptr %9, align 2
  %156 = zext i16 %155 to i32
  %157 = mul i32 12, %156
  %158 = add i32 22, %157
  %159 = call ptr @proto_tree_add_item(ptr noundef %152, i32 noundef %153, ptr noundef %154, i32 noundef %158, i32 noundef 2, i32 noundef -2147483648)
  br label %160

160:                                              ; preds = %68
  %161 = load i16, ptr %9, align 2
  %162 = add i16 %161, 1
  store i16 %162, ptr %9, align 2
  br label %63, !llvm.loop !13

163:                                              ; preds = %63
  %164 = load ptr, ptr %5, align 8
  %165 = call i32 @tvb_captured_length(ptr noundef %164)
  ret i32 %165
}