; Function Attrs: nounwind uwtable
define internal i32 @dissect_ubx_nav_sbas(ptr noundef %0, ptr noundef readonly captures(none) %1, ptr noundef %2, ptr readnone captures(none) %3) #0 {
  %5 = getelementptr inbounds nuw i8, ptr %1, i64 8
  %6 = load ptr, ptr %5, align 8
  tail call void @col_set_str(ptr noundef %6, i32 noundef 34, ptr noundef nonnull @.str.317) #5
  %7 = load ptr, ptr %5, align 8
  tail call void @col_clear(ptr noundef %7, i32 noundef 25) #5
  %8 = tail call zeroext i8 @tvb_get_guint8(ptr noundef %0, i32 noundef 8) #5
  %9 = zext i8 %8 to i32
  %10 = load i32, ptr @hf_ubx_nav_sbas, align 4
  %11 = mul nuw nsw i32 %9, 12
  %12 = add nuw nsw i32 %11, 12
  %13 = tail call ptr @proto_tree_add_item(ptr noundef %2, i32 noundef %10, ptr noundef %0, i32 noundef 0, i32 noundef %12, i32 noundef 0) #5
  %14 = load i32, ptr @ett_ubx_nav_sbas, align 4
  %15 = tail call ptr @proto_item_add_subtree(ptr noundef %13, i32 noundef %14) #5
  %16 = load i32, ptr @hf_ubx_nav_sbas_itow, align 4
  %17 = tail call ptr @proto_tree_add_item(ptr noundef %15, i32 noundef %16, ptr noundef %0, i32 noundef 0, i32 noundef 4, i32 noundef -2147483648) #5
  %18 = load i32, ptr @hf_ubx_nav_sbas_geo, align 4
  %19 = tail call ptr @proto_tree_add_item(ptr noundef %15, i32 noundef %18, ptr noundef %0, i32 noundef 4, i32 noundef 1, i32 noundef 0) #5
  %20 = load i32, ptr @hf_ubx_nav_sbas_mode, align 4
  %21 = tail call ptr @proto_tree_add_item(ptr noundef %15, i32 noundef %20, ptr noundef %0, i32 noundef 5, i32 noundef 1, i32 noundef 0) #5
  %22 = load i32, ptr @hf_ubx_nav_sbas_sys, align 4
  %23 = tail call ptr @proto_tree_add_item(ptr noundef %15, i32 noundef %22, ptr noundef %0, i32 noundef 6, i32 noundef 1, i32 noundef 0) #5
  %24 = load i32, ptr @hf_ubx_nav_sbas_service, align 4
  %25 = load i32, ptr @ett_ubx_nav_sbas_service, align 4
  %26 = tail call ptr @proto_tree_add_bitmask(ptr noundef %15, ptr noundef %0, i32 noundef 7, i32 noundef %24, i32 noundef %25, ptr noundef nonnull @ubx_nav_sbas_service_fields, i32 noundef 0) #5
  %27 = load i32, ptr @hf_ubx_nav_sbas_cnt, align 4
  %28 = tail call ptr @proto_tree_add_item(ptr noundef %15, i32 noundef %27, ptr noundef %0, i32 noundef 8, i32 noundef 1, i32 noundef 0) #5
  %29 = load i32, ptr @hf_ubx_nav_sbas_reserved1, align 4
  %30 = tail call ptr @proto_tree_add_item(ptr noundef %15, i32 noundef %29, ptr noundef %0, i32 noundef 9, i32 noundef 3, i32 noundef -2147483648) #5
  %.not = icmp eq i8 %8, 0
  br i1 %.not, label %._crit_edge, label %.lr.ph.preheader

.lr.ph.preheader:                                 ; preds = %4
  %wide.trip.count = zext i8 %8 to i64
  br label %.lr.ph

.lr.ph:                                           ; preds = %.lr.ph.preheader, %.lr.ph
  %indvars.iv = phi i64 [ 0, %.lr.ph.preheader ], [ %indvars.iv.next, %.lr.ph ]
  %31 = phi i32 [ 0, %.lr.ph.preheader ], [ %65, %.lr.ph ]
  %32 = mul nuw nsw i32 %31, 12
  %33 = add nuw nsw i32 %32, 12
  %34 = tail call zeroext i8 @tvb_get_guint8(ptr noundef %0, i32 noundef %33) #5
  %35 = getelementptr [255 x i32], ptr @ett_ubx_nav_sbas_sv_info, i64 0, i64 %indvars.iv
  %36 = load i32, ptr %35, align 4
  %37 = zext i8 %34 to i32
  %38 = tail call ptr (ptr, ptr, i32, i32, i32, ptr, ptr, ...) @proto_tree_add_subtree_format(ptr noundef %15, ptr noundef %0, i32 noundef %33, i32 noundef 12, i32 noundef %36, ptr noundef null, ptr noundef nonnull @.str.762, i32 noundef %37) #5
  %39 = load i32, ptr @hf_ubx_nav_sbas_sv_id, align 4
  %40 = tail call ptr @proto_tree_add_item(ptr noundef %38, i32 noundef %39, ptr noundef %0, i32 noundef %33, i32 noundef 1, i32 noundef 0) #5
  %41 = load i32, ptr @hf_ubx_nav_sbas_flags, align 4
  %42 = add nuw nsw i32 %32, 13
  %43 = tail call ptr @proto_tree_add_item(ptr noundef %38, i32 noundef %41, ptr noundef %0, i32 noundef %42, i32 noundef 1, i32 noundef 0) #5
  %44 = load i32, ptr @hf_ubx_nav_sbas_udre, align 4
  %45 = add nuw nsw i32 %32, 14
  %46 = tail call ptr @proto_tree_add_item(ptr noundef %38, i32 noundef %44, ptr noundef %0, i32 noundef %45, i32 noundef 1, i32 noundef 0) #5
  %47 = load i32, ptr @hf_ubx_nav_sbas_sv_sys, align 4
  %48 = add nuw nsw i32 %32, 15
  %49 = tail call ptr @proto_tree_add_item(ptr noundef %38, i32 noundef %47, ptr noundef %0, i32 noundef %48, i32 noundef 1, i32 noundef 0) #5
  %50 = load i32, ptr @hf_ubx_nav_sbas_sv_service, align 4
  %51 = add nuw nsw i32 %32, 16
  %52 = tail call ptr @proto_tree_add_item(ptr noundef %38, i32 noundef %50, ptr noundef %0, i32 noundef %51, i32 noundef 1, i32 noundef 0) #5
  %53 = load i32, ptr @hf_ubx_nav_sbas_reserved2, align 4
  %54 = add nuw nsw i32 %32, 17
  %55 = tail call ptr @proto_tree_add_item(ptr noundef %38, i32 noundef %53, ptr noundef %0, i32 noundef %54, i32 noundef 1, i32 noundef 0) #5
  %56 = load i32, ptr @hf_ubx_nav_sbas_prc, align 4
  %57 = add nuw nsw i32 %32, 18
  %58 = tail call ptr @proto_tree_add_item(ptr noundef %38, i32 noundef %56, ptr noundef %0, i32 noundef %57, i32 noundef 2, i32 noundef -2147483648) #5
  %59 = load i32, ptr @hf_ubx_nav_sbas_reserved3, align 4
  %60 = add nuw nsw i32 %32, 20
  %61 = tail call ptr @proto_tree_add_item(ptr noundef %38, i32 noundef %59, ptr noundef %0, i32 noundef %60, i32 noundef 2, i32 noundef -2147483648) #5
  %62 = load i32, ptr @hf_ubx_nav_sbas_ic, align 4
  %63 = add nuw nsw i32 %32, 22
  %64 = tail call ptr @proto_tree_add_item(ptr noundef %38, i32 noundef %62, ptr noundef %0, i32 noundef %63, i32 noundef 2, i32 noundef -2147483648) #5
  %indvars.iv.next = add nuw nsw i64 %indvars.iv, 1
  %65 = trunc nuw nsw i64 %indvars.iv.next to i32
  %exitcond.not = icmp eq i64 %indvars.iv.next, %wide.trip.count
  br i1 %exitcond.not, label %._crit_edge, label %.lr.ph, !llvm.loop !13

._crit_edge:                                      ; preds = %.lr.ph, %4
  %66 = tail call i32 @tvb_captured_length(ptr noundef %0) #5
  ret i32 %66
}